target datalayout = "e-m:e-p270:32:32-p271:32:32-p272:64:64-i64:64-i128:128-f80:128-n8:16:32:64-S128"
target triple = "x86_64-pc-linux-gnu"

%struct._lv_image_t = type { %struct._lv_obj_t, ptr, ptr, %struct.lv_point_t, i32, i32, i32, i32, i32, %struct.lv_point_t, i16 }
%struct._lv_obj_t = type { ptr, ptr, ptr, ptr, ptr, %struct.lv_area_t, i32, i16, i16 }
%struct.lv_area_t = type { i32, i32, i32, i32 }
%struct.lv_point_t = type { i32, i32 }

; Function Attrs: nounwind uwtable
define void @lv_image_get_pivot(ptr noundef %0, ptr noundef %1) #0 {
  %3 = alloca ptr, align 8
  %4 = alloca ptr, align 8
  %5 = alloca ptr, align 8
  store ptr %0, ptr %3, align 8, !tbaa !8
  store ptr %1, ptr %4, align 8, !tbaa !45
  br label %6

6:                                                ; preds = %2
  %7 = load ptr, ptr %3, align 8, !tbaa !8
  %8 = icmp ne ptr %7, null
  br i1 %8, label %13, label %9

9:                                                ; preds = %6
  br label %10

10:                                               ; preds = %9
  br label %11

11:                                               ; preds = %10
  br label %12

12:                                               ; preds = %11, %12
  br label %12

13:                                               ; preds = %6
  br label %14

14:                                               ; preds = %13
  call void @llvm.lifetime.start.p0(i64 8, ptr %5) #5
  %15 = load ptr, ptr %3, align 8, !tbaa !8
  store ptr %15, ptr %5, align 8, !tbaa !10
  %16 = load ptr, ptr %5, align 8, !tbaa !10
  %17 = getelementptr inbounds nuw %struct._lv_image_t, ptr %16, i32 0, i32 9
  %18 = getelementptr inbounds nuw %struct.lv_point_t, ptr %17, i32 0, i32 0
  %19 = load i32, ptr %18, align 4, !tbaa !37
  %20 = load ptr, ptr %5, align 8, !tbaa !10
  %21 = getelementptr inbounds nuw %struct._lv_image_t, ptr %20, i32 0, i32 4
  %22 = load i32, ptr %21, align 8, !tbaa !21
  %23 = call i32 @lv_pct_to_px(i32 noundef %19, i32 noundef %22)
  %24 = load ptr, ptr %4, align 8, !tbaa !45
  %25 = getelementptr inbounds nuw %struct.lv_point_t, ptr %24, i32 0, i32 0
  store i32 %23, ptr %25, align 4, !tbaa !46
  %26 = load ptr, ptr %5, align 8, !tbaa !10
  %27 = getelementptr inbounds nuw %struct._lv_image_t, ptr %26, i32 0, i32 9
  %28 = getelementptr inbounds nuw %struct.lv_point_t, ptr %27, i32 0, i32 1
  %29 = load i32, ptr %28, align 4, !tbaa !38
  %30 = load ptr, ptr %5, align 8, !tbaa !10
  %31 = getelementptr inbounds nuw %struct._lv_image_t, ptr %30, i32 0, i32 5
  %32 = load i32, ptr %31, align 4, !tbaa !22
  %33 = call i32 @lv_pct_to_px(i32 noundef %29, i32 noundef %32)
  %34 = load ptr, ptr %4, align 8, !tbaa !45
  %35 = getelementptr inbounds nuw %struct.lv_point_t, ptr %34, i32 0, i32 1
  store i32 %33, ptr %35, align 4, !tbaa !47
  call void @llvm.lifetime.end.p0(i64 8, ptr %5) #5
  ret void
}

; Function Attrs: nounwind uwtable
define void @lv_image_set_pivot(ptr noundef %0, i32 noundef %1, i32 noundef %2) #0 {
  %4 = alloca ptr, align 8
  %5 = alloca i32, align 4
  %6 = alloca i32, align 4
  %7 = alloca ptr, align 8
  %8 = alloca i32, align 4
  %9 = alloca i32, align 4
  %10 = alloca i32, align 4
  %11 = alloca %struct.lv_area_t, align 4
  %12 = alloca %struct.lv_point_t, align 4
  %13 = alloca ptr, align 8
  store ptr %0, ptr %4, align 8, !tbaa !8
  store i32 %1, ptr %5, align 4, !tbaa !28
  store i32 %2, ptr %6, align 4, !tbaa !28
  br label %14

14:                                               ; preds = %3
  %15 = load ptr, ptr %4, align 8, !tbaa !8
  %16 = icmp ne ptr %15, null
  br i1 %16, label %21, label %17

17:                                               ; preds = %14
  br label %18

18:                                               ; preds = %17
  br label %19

19:                                               ; preds = %18
  br label %20

20:                                               ; preds = %19, %20
  br label %20

21:                                               ; preds = %14
  br label %22

22:                                               ; preds = %21
  call void @llvm.lifetime.start.p0(i64 8, ptr %7) #5
  %23 = load ptr, ptr %4, align 8, !tbaa !8
  store ptr %23, ptr %7, align 8, !tbaa !10
  %24 = load ptr, ptr %7, align 8, !tbaa !10
  %25 = getelementptr inbounds nuw %struct._lv_image_t, ptr %24, i32 0, i32 10
  %26 = load i16, ptr %25, align 4
  %27 = lshr i16 %26, 8
  %28 = and i16 %27, 15
  %29 = zext i16 %28 to i32
  %30 = icmp sgt i32 %29, 10
  br i1 %30, label %31, label %32

31:                                               ; preds = %22
  store i32 0, ptr %5, align 4, !tbaa !28
  store i32 0, ptr %6, align 4, !tbaa !28
  br label %32

32:                                               ; preds = %31, %22
  %33 = load ptr, ptr %7, align 8, !tbaa !10
  %34 = getelementptr inbounds nuw %struct._lv_image_t, ptr %33, i32 0, i32 9
  %35 = getelementptr inbounds nuw %struct.lv_point_t, ptr %34, i32 0, i32 0
  %36 = load i32, ptr %35, align 4, !tbaa !37
  %37 = load i32, ptr %5, align 4, !tbaa !28
  %38 = icmp eq i32 %36, %37
  br i1 %38, label %39, label %47

39:                                               ; preds = %32
  %40 = load ptr, ptr %7, align 8, !tbaa !10
  %41 = getelementptr inbounds nuw %struct._lv_image_t, ptr %40, i32 0, i32 9
  %42 = getelementptr inbounds nuw %struct.lv_point_t, ptr %41, i32 0, i32 1
  %43 = load i32, ptr %42, align 4, !tbaa !38
  %44 = load i32, ptr %6, align 4, !tbaa !28
  %45 = icmp eq i32 %43, %44
  br i1 %45, label %46, label %47

46:                                               ; preds = %39
  store i32 1, ptr %8, align 4
  br label %148

47:                                               ; preds = %39, %32
  %48 = load ptr, ptr %4, align 8, !tbaa !8
  call void @lv_obj_update_layout(ptr noundef %48)
  call void @llvm.lifetime.start.p0(i64 4, ptr %9) #5
  %49 = load ptr, ptr %4, align 8, !tbaa !8
  %50 = call i32 @lv_obj_get_width(ptr noundef %49)
  store i32 %50, ptr %9, align 4, !tbaa !28
  call void @llvm.lifetime.start.p0(i64 4, ptr %10) #5
  %51 = load ptr, ptr %4, align 8, !tbaa !8
  %52 = call i32 @lv_obj_get_height(ptr noundef %51)
  store i32 %52, ptr %10, align 4, !tbaa !28
  call void @llvm.lifetime.start.p0(i64 16, ptr %11) #5
  call void @llvm.lifetime.start.p0(i64 8, ptr %12) #5
  %53 = load ptr, ptr %4, align 8, !tbaa !8
  call void @lv_image_get_pivot(ptr noundef %53, ptr noundef %12)
  %54 = load i32, ptr %9, align 4, !tbaa !28
  %55 = load i32, ptr %10, align 4, !tbaa !28
  %56 = load ptr, ptr %7, align 8, !tbaa !10
  %57 = getelementptr inbounds nuw %struct._lv_image_t, ptr %56, i32 0, i32 6
  %58 = load i32, ptr %57, align 8, !tbaa !23
  %59 = load ptr, ptr %7, align 8, !tbaa !10
  %60 = getelementptr inbounds nuw %struct._lv_image_t, ptr %59, i32 0, i32 7
  %61 = load i32, ptr %60, align 4, !tbaa !24
  %62 = trunc i32 %61 to i16
  %63 = load ptr, ptr %7, align 8, !tbaa !10
  %64 = getelementptr inbounds nuw %struct._lv_image_t, ptr %63, i32 0, i32 8
  %65 = load i32, ptr %64, align 8, !tbaa !25
  %66 = trunc i32 %65 to i16
  call void @lv_image_buf_get_transformed_area(ptr noundef %11, i32 noundef %54, i32 noundef %55, i32 noundef %58, i16 noundef zeroext %62, i16 noundef zeroext %66, ptr noundef %12)
  %67 = load ptr, ptr %4, align 8, !tbaa !8
  %68 = getelementptr inbounds nuw %struct._lv_obj_t, ptr %67, i32 0, i32 5
  %69 = getelementptr inbounds nuw %struct.lv_area_t, ptr %68, i32 0, i32 0
  %70 = load i32, ptr %69, align 8, !tbaa !39
  %71 = getelementptr inbounds nuw %struct.lv_area_t, ptr %11, i32 0, i32 0
  %72 = load i32, ptr %71, align 4, !tbaa !31
  %73 = add nsw i32 %72, %70
  store i32 %73, ptr %71, align 4, !tbaa !31
  %74 = load ptr, ptr %4, align 8, !tbaa !8
  %75 = getelementptr inbounds nuw %struct._lv_obj_t, ptr %74, i32 0, i32 5
  %76 = getelementptr inbounds nuw %struct.lv_area_t, ptr %75, i32 0, i32 1
  %77 = load i32, ptr %76, align 4, !tbaa !40
  %78 = getelementptr inbounds nuw %struct.lv_area_t, ptr %11, i32 0, i32 1
  %79 = load i32, ptr %78, align 4, !tbaa !32
  %80 = add nsw i32 %79, %77
  store i32 %80, ptr %78, align 4, !tbaa !32
  %81 = load ptr, ptr %4, align 8, !tbaa !8
  %82 = getelementptr inbounds nuw %struct._lv_obj_t, ptr %81, i32 0, i32 5
  %83 = getelementptr inbounds nuw %struct.lv_area_t, ptr %82, i32 0, i32 0
  %84 = load i32, ptr %83, align 8, !tbaa !39
  %85 = getelementptr inbounds nuw %struct.lv_area_t, ptr %11, i32 0, i32 2
  %86 = load i32, ptr %85, align 4, !tbaa !33
  %87 = add nsw i32 %86, %84
  store i32 %87, ptr %85, align 4, !tbaa !33
  %88 = load ptr, ptr %4, align 8, !tbaa !8
  %89 = getelementptr inbounds nuw %struct._lv_obj_t, ptr %88, i32 0, i32 5
  %90 = getelementptr inbounds nuw %struct.lv_area_t, ptr %89, i32 0, i32 1
  %91 = load i32, ptr %90, align 4, !tbaa !40
  %92 = getelementptr inbounds nuw %struct.lv_area_t, ptr %11, i32 0, i32 3
  %93 = load i32, ptr %92, align 4, !tbaa !34
  %94 = add nsw i32 %93, %91
  store i32 %94, ptr %92, align 4, !tbaa !34
  %95 = load ptr, ptr %4, align 8, !tbaa !8
  call void @lv_obj_invalidate_area(ptr noundef %95, ptr noundef %11)
  %96 = load ptr, ptr %7, align 8, !tbaa !10
  %97 = getelementptr inbounds nuw %struct._lv_image_t, ptr %96, i32 0, i32 9
  %98 = load i32, ptr %5, align 4, !tbaa !28
  %99 = load i32, ptr %6, align 4, !tbaa !28
  call void @lv_point_set(ptr noundef %97, i32 noundef %98, i32 noundef %99)
  call void @llvm.lifetime.start.p0(i64 8, ptr %13) #5
  %100 = load ptr, ptr %4, align 8, !tbaa !8
  %101 = call ptr @lv_obj_get_display(ptr noundef %100)
  store ptr %101, ptr %13, align 8, !tbaa !58
  %102 = load ptr, ptr %13, align 8, !tbaa !58
  call void @lv_display_enable_invalidation(ptr noundef %102, i1 noundef zeroext false)
  %103 = load ptr, ptr %4, align 8, !tbaa !8
  call void @lv_obj_refresh_ext_draw_size(ptr noundef %103)
  %104 = load ptr, ptr %13, align 8, !tbaa !58
  call void @lv_display_enable_invalidation(ptr noundef %104, i1 noundef zeroext true)
  %105 = load ptr, ptr %4, align 8, !tbaa !8
  call void @lv_image_get_pivot(ptr noundef %105, ptr noundef %12)
  %106 = load i32, ptr %9, align 4, !tbaa !28
  %107 = load i32, ptr %10, align 4, !tbaa !28
  %108 = load ptr, ptr %7, align 8, !tbaa !10
  %109 = getelementptr inbounds nuw %struct._lv_image_t, ptr %108, i32 0, i32 6
  %110 = load i32, ptr %109, align 8, !tbaa !23
  %111 = load ptr, ptr %7, align 8, !tbaa !10
  %112 = getelementptr inbounds nuw %struct._lv_image_t, ptr %111, i32 0, i32 7
  %113 = load i32, ptr %112, align 4, !tbaa !24
  %114 = trunc i32 %113 to i16
  %115 = load ptr, ptr %7, align 8, !tbaa !10
  %116 = getelementptr inbounds nuw %struct._lv_image_t, ptr %115, i32 0, i32 8
  %117 = load i32, ptr %116, align 8, !tbaa !25
  %118 = trunc i32 %117 to i16
  call void @lv_image_buf_get_transformed_area(ptr noundef %11, i32 noundef %106, i32 noundef %107, i32 noundef %110, i16 noundef zeroext %114, i16 noundef zeroext %118, ptr noundef %12)
  %119 = load ptr, ptr %4, align 8, !tbaa !8
  %120 = getelementptr inbounds nuw %struct._lv_obj_t, ptr %119, i32 0, i32 5
  %121 = getelementptr inbounds nuw %struct.lv_area_t, ptr %120, i32 0, i32 0
  %122 = load i32, ptr %121, align 8, !tbaa !39
  %123 = getelementptr inbounds nuw %struct.lv_area_t, ptr %11, i32 0, i32 0
  %124 = load i32, ptr %123, align 4, !tbaa !31
  %125 = add nsw i32 %124, %122
  store i32 %125, ptr %123, align 4, !tbaa !31
  %126 = load ptr, ptr %4, align 8, !tbaa !8
  %127 = getelementptr inbounds nuw %struct._lv_obj_t, ptr %126, i32 0, i32 5
  %128 = getelementptr inbounds nuw %struct.lv_area_t, ptr %127, i32 0, i32 1
  %129 = load i32, ptr %128, align 4, !tbaa !40
  %130 = getelementptr inbounds nuw %struct.lv_area_t, ptr %11, i32 0, i32 1
  %131 = load i32, ptr %130, align 4, !tbaa !32
  %132 = add nsw i32 %131, %129
  store i32 %132, ptr %130, align 4, !tbaa !32
  %133 = load ptr, ptr %4, align 8, !tbaa !8
  %134 = getelementptr inbounds nuw %struct._lv_obj_t, ptr %133, i32 0, i32 5
  %135 = getelementptr inbounds nuw %struct.lv_area_t, ptr %134, i32 0, i32 0
  %136 = load i32, ptr %135, align 8, !tbaa !39
  %137 = getelementptr inbounds nuw %struct.lv_area_t, ptr %11, i32 0, i32 2
  %138 = load i32, ptr %137, align 4, !tbaa !33
  %139 = add nsw i32 %138, %136
  store i32 %139, ptr %137, align 4, !tbaa !33
  %140 = load ptr, ptr %4, align 8, !tbaa !8
  %141 = getelementptr inbounds nuw %struct._lv_obj_t, ptr %140, i32 0, i32 5
  %142 = getelementptr inbounds nuw %struct.lv_area_t, ptr %141, i32 0, i32 1
  %143 = load i32, ptr %142, align 4, !tbaa !40
  %144 = getelementptr inbounds nuw %struct.lv_area_t, ptr %11, i32 0, i32 3
  %145 = load i32, ptr %144, align 4, !tbaa !34
  %146 = add nsw i32 %145, %143
  store i32 %146, ptr %144, align 4, !tbaa !34
  %147 = load ptr, ptr %4, align 8, !tbaa !8
  call void @lv_obj_invalidate_area(ptr noundef %147, ptr noundef %11)
  call void @llvm.lifetime.end.p0(i64 8, ptr %13) #5
  call void @llvm.lifetime.end.p0(i64 8, ptr %12) #5
  call void @llvm.lifetime.end.p0(i64 16, ptr %11) #5
  call void @llvm.lifetime.end.p0(i64 4, ptr %10) #5
  call void @llvm.lifetime.end.p0(i64 4, ptr %9) #5
  store i32 0, ptr %8, align 4
  br label %148

148:                                              ; preds = %47, %46
  call void @llvm.lifetime.end.p0(i64 8, ptr %7) #5
  %149 = load i32, ptr %8, align 4
  switch i32 %149, label %151 [
    i32 0, label %150
    i32 1, label %150
  ]

150:                                              ; preds = %148, %148
  ret void

151:                                              ; preds = %148
  unreachable
}