; Function Attrs: nounwind uwtable
define void @lv_image_set_pivot(ptr noundef %0, i32 noundef %1, i32 noundef %2) local_unnamed_addr #0 {
  %4 = alloca %struct.lv_area_t, align 4
  %5 = alloca %struct.lv_point_t, align 4
  %.not = icmp eq ptr %0, null
  br i1 %.not, label %.preheader, label %6

.preheader:                                       ; preds = %3, %.preheader
  br label %.preheader

6:                                                ; preds = %3
  %7 = getelementptr inbounds nuw i8, ptr %0, i64 116
  %8 = load i16, ptr %7, align 4
  %9 = and i16 %8, 3840
  %10 = icmp samesign ugt i16 %9, 2560
  %spec.select = select i1 %10, i32 0, i32 %2
  %spec.select40 = select i1 %10, i32 0, i32 %1
  %11 = getelementptr inbounds nuw i8, ptr %0, i64 108
  %12 = load i32, ptr %11, align 4, !tbaa !22
  %13 = icmp eq i32 %12, %spec.select40
  br i1 %13, label %14, label %lv_image_get_pivot.exit43

14:                                               ; preds = %6
  %15 = getelementptr inbounds nuw i8, ptr %0, i64 112
  %16 = load i32, ptr %15, align 4, !tbaa !24
  %17 = icmp eq i32 %16, %spec.select
  br i1 %17, label %75, label %lv_image_get_pivot.exit43

lv_image_get_pivot.exit43:                        ; preds = %14, %6
  tail call void @lv_obj_update_layout(ptr noundef nonnull %0) #6
  %18 = tail call i32 @lv_obj_get_width(ptr noundef nonnull %0) #6
  %19 = tail call i32 @lv_obj_get_height(ptr noundef nonnull %0) #6
  call void @llvm.lifetime.start.p0(i64 16, ptr nonnull %4) #6
  call void @llvm.lifetime.start.p0(i64 8, ptr nonnull %5) #6
  %20 = load i32, ptr %11, align 4, !tbaa !22
  %21 = getelementptr inbounds nuw i8, ptr %0, i64 88
  %22 = load i32, ptr %21, align 8, !tbaa !17
  %23 = tail call i32 @lv_pct_to_px(i32 noundef %20, i32 noundef %22) #6
  store i32 %23, ptr %5, align 4, !tbaa !23
  %24 = getelementptr inbounds nuw i8, ptr %0, i64 112
  %25 = load i32, ptr %24, align 4, !tbaa !24
  %26 = getelementptr inbounds nuw i8, ptr %0, i64 92
  %27 = load i32, ptr %26, align 4, !tbaa !18
  %28 = tail call i32 @lv_pct_to_px(i32 noundef %25, i32 noundef %27) #6
  %29 = getelementptr inbounds nuw i8, ptr %5, i64 4
  store i32 %28, ptr %29, align 4, !tbaa !25
  %30 = getelementptr inbounds nuw i8, ptr %0, i64 96
  %31 = load i32, ptr %30, align 8, !tbaa !19
  %32 = getelementptr inbounds nuw i8, ptr %0, i64 100
  %33 = load i32, ptr %32, align 4, !tbaa !20
  %34 = trunc i32 %33 to i16
  %35 = getelementptr inbounds nuw i8, ptr %0, i64 104
  %36 = load i32, ptr %35, align 8, !tbaa !21
  %37 = trunc i32 %36 to i16
  call void @lv_image_buf_get_transformed_area(ptr noundef nonnull %4, i32 noundef %18, i32 noundef %19, i32 noundef %31, i16 noundef zeroext %34, i16 noundef zeroext %37, ptr noundef nonnull %5) #6
  %38 = getelementptr inbounds nuw i8, ptr %0, i64 40
  %39 = load i32, ptr %38, align 8, !tbaa !31
  %40 = load i32, ptr %4, align 4, !tbaa !27
  %41 = add nsw i32 %40, %39
  store i32 %41, ptr %4, align 4, !tbaa !27
  %42 = getelementptr inbounds nuw i8, ptr %0, i64 44
  %43 = load i32, ptr %42, align 4, !tbaa !32
  %44 = getelementptr inbounds nuw i8, ptr %4, i64 4
  %45 = load i32, ptr %44, align 4, !tbaa !28
  %46 = add nsw i32 %45, %43
  store i32 %46, ptr %44, align 4, !tbaa !28
  %47 = getelementptr inbounds nuw i8, ptr %4, i64 8
  %48 = load i32, ptr %47, align 4, !tbaa !29
  %49 = add nsw i32 %48, %39
  store i32 %49, ptr %47, align 4, !tbaa !29
  %50 = getelementptr inbounds nuw i8, ptr %4, i64 12
  %51 = load i32, ptr %50, align 4, !tbaa !30
  %52 = add nsw i32 %51, %43
  store i32 %52, ptr %50, align 4, !tbaa !30
  call void @lv_obj_invalidate_area(ptr noundef nonnull %0, ptr noundef nonnull %4) #6
  call void @lv_point_set(ptr noundef nonnull %11, i32 noundef %spec.select40, i32 noundef %spec.select) #6
  %53 = call ptr @lv_obj_get_display(ptr noundef nonnull %0) #6
  call void @lv_display_enable_invalidation(ptr noundef %53, i1 noundef zeroext false) #6
  call void @lv_obj_refresh_ext_draw_size(ptr noundef nonnull %0) #6
  call void @lv_display_enable_invalidation(ptr noundef %53, i1 noundef zeroext true) #6
  %54 = load i32, ptr %11, align 4, !tbaa !22
  %55 = load i32, ptr %21, align 8, !tbaa !17
  %56 = call i32 @lv_pct_to_px(i32 noundef %54, i32 noundef %55) #6
  store i32 %56, ptr %5, align 4, !tbaa !23
  %57 = load i32, ptr %24, align 4, !tbaa !24
  %58 = load i32, ptr %26, align 4, !tbaa !18
  %59 = call i32 @lv_pct_to_px(i32 noundef %57, i32 noundef %58) #6
  store i32 %59, ptr %29, align 4, !tbaa !25
  %60 = load i32, ptr %30, align 8, !tbaa !19
  %61 = load i32, ptr %32, align 4, !tbaa !20
  %62 = trunc i32 %61 to i16
  %63 = load i32, ptr %35, align 8, !tbaa !21
  %64 = trunc i32 %63 to i16
  call void @lv_image_buf_get_transformed_area(ptr noundef nonnull %4, i32 noundef %18, i32 noundef %19, i32 noundef %60, i16 noundef zeroext %62, i16 noundef zeroext %64, ptr noundef nonnull %5) #6
  %65 = load i32, ptr %38, align 8, !tbaa !31
  %66 = load i32, ptr %4, align 4, !tbaa !27
  %67 = add nsw i32 %66, %65
  store i32 %67, ptr %4, align 4, !tbaa !27
  %68 = load i32, ptr %42, align 4, !tbaa !32
  %69 = load i32, ptr %44, align 4, !tbaa !28
  %70 = add nsw i32 %69, %68
  store i32 %70, ptr %44, align 4, !tbaa !28
  %71 = load i32, ptr %47, align 4, !tbaa !29
  %72 = add nsw i32 %71, %65
  store i32 %72, ptr %47, align 4, !tbaa !29
  %73 = load i32, ptr %50, align 4, !tbaa !30
  %74 = add nsw i32 %73, %68
  store i32 %74, ptr %50, align 4, !tbaa !30
  call void @lv_obj_invalidate_area(ptr noundef nonnull %0, ptr noundef nonnull %4) #6
  call void @llvm.lifetime.end.p0(i64 8, ptr nonnull %5) #6
  call void @llvm.lifetime.end.p0(i64 16, ptr nonnull %4) #6
  br label %75

75:                                               ; preds = %14, %lv_image_get_pivot.exit43
  ret void
}